; Function Attrs: nounwind uwtable
define ptr @l___private_Lean_Data_FuzzyMatching_0__Lean_FuzzyMatching_fuzzyMatchCore_allowMatch___boxed(ptr noundef %0, ptr noundef %1, ptr noundef %2, ptr noundef %3) local_unnamed_addr #0 {
  %5 = ptrtoint ptr %0 to i64
  %6 = lshr i64 %5, 1
  %7 = trunc i64 %6 to i32
  %8 = and i64 %5, 1
  %.not = icmp eq i64 %8, 0
  br i1 %.not, label %9, label %lean_dec.exit14

9:                                                ; preds = %4
  %10 = load i32, ptr %0, align 4, !tbaa !5
  %11 = icmp sgt i32 %10, 1
  br i1 %11, label %12, label %14, !prof !10

12:                                               ; preds = %9
  %13 = add nsw i32 %10, -1
  store i32 %13, ptr %0, align 4, !tbaa !5
  br label %lean_dec.exit14

14:                                               ; preds = %9
  %.not.i = icmp eq i32 %10, 0
  br i1 %.not.i, label %lean_dec.exit14, label %15

15:                                               ; preds = %14
  tail call void @lean_dec_ref_cold(ptr noundef nonnull %0) #7
  br label %lean_dec.exit14

lean_dec.exit14:                                  ; preds = %15, %14, %12, %4
  %16 = ptrtoint ptr %1 to i64
  %17 = lshr i64 %16, 1
  %18 = trunc i64 %17 to i32
  %19 = and i64 %16, 1
  %.not22 = icmp eq i64 %19, 0
  br i1 %.not22, label %20, label %lean_dec.exit13

20:                                               ; preds = %lean_dec.exit14
  %21 = load i32, ptr %1, align 4, !tbaa !5
  %22 = icmp sgt i32 %21, 1
  br i1 %22, label %23, label %25, !prof !10

23:                                               ; preds = %20
  %24 = add nsw i32 %21, -1
  store i32 %24, ptr %1, align 4, !tbaa !5
  br label %lean_dec.exit13

25:                                               ; preds = %20
  %.not.i15 = icmp eq i32 %21, 0
  br i1 %.not.i15, label %lean_dec.exit13, label %26

26:                                               ; preds = %25
  tail call void @lean_dec_ref_cold(ptr noundef nonnull %1) #7
  br label %lean_dec.exit13

lean_dec.exit13:                                  ; preds = %26, %25, %23, %lean_dec.exit14
  %27 = ptrtoint ptr %2 to i64
  %28 = and i64 %27, 1
  %.not23 = icmp eq i64 %28, 0
  br i1 %.not23, label %29, label %lean_dec.exit12

29:                                               ; preds = %lean_dec.exit13
  %30 = load i32, ptr %2, align 4, !tbaa !5
  %31 = icmp sgt i32 %30, 1
  br i1 %31, label %32, label %34, !prof !10

32:                                               ; preds = %29
  %33 = add nsw i32 %30, -1
  store i32 %33, ptr %2, align 4, !tbaa !5
  br label %lean_dec.exit12

34:                                               ; preds = %29
  %.not.i17 = icmp eq i32 %30, 0
  br i1 %.not.i17, label %lean_dec.exit12, label %35

35:                                               ; preds = %34
  tail call void @lean_dec_ref_cold(ptr noundef nonnull %2) #7
  br label %lean_dec.exit12

lean_dec.exit12:                                  ; preds = %35, %34, %32, %lean_dec.exit13
  %36 = ptrtoint ptr %3 to i64
  %37 = and i64 %36, 1
  %.not24 = icmp eq i64 %37, 0
  br i1 %.not24, label %38, label %lean_dec.exit

38:                                               ; preds = %lean_dec.exit12
  %39 = load i32, ptr %3, align 4, !tbaa !5
  %40 = icmp sgt i32 %39, 1
  br i1 %40, label %41, label %43, !prof !10

41:                                               ; preds = %38
  %42 = add nsw i32 %39, -1
  store i32 %42, ptr %3, align 4, !tbaa !5
  br label %lean_dec.exit

43:                                               ; preds = %38
  %.not.i19 = icmp eq i32 %39, 0
  br i1 %.not.i19, label %lean_dec.exit, label %44

44:                                               ; preds = %43
  tail call void @lean_dec_ref_cold(ptr noundef nonnull %3) #7
  br label %lean_dec.exit

lean_dec.exit:                                    ; preds = %44, %43, %41, %lean_dec.exit12
  %45 = tail call ptr @l_Char_toLower(i32 noundef %7) #7
  %46 = ptrtoint ptr %45 to i64
  %47 = lshr i64 %46, 1
  %48 = trunc i64 %47 to i32
  %49 = and i64 %46, 1
  %.not.i21 = icmp eq i64 %49, 0
  br i1 %.not.i21, label %50, label %lean_dec.exit15.i

50:                                               ; preds = %lean_dec.exit
  %51 = load i32, ptr %45, align 4, !tbaa !5
  %52 = icmp sgt i32 %51, 1
  br i1 %52, label %53, label %55, !prof !10

53:                                               ; preds = %50
  %54 = add nsw i32 %51, -1
  store i32 %54, ptr %45, align 4, !tbaa !5
  br label %lean_dec.exit15.i

55:                                               ; preds = %50
  %.not.i.i = icmp eq i32 %51, 0
  br i1 %.not.i.i, label %lean_dec.exit15.i, label %56

56:                                               ; preds = %55
  tail call void @lean_dec_ref_cold(ptr noundef nonnull %45) #7
  br label %lean_dec.exit15.i

lean_dec.exit15.i:                                ; preds = %56, %55, %53, %lean_dec.exit
  %57 = tail call ptr @l_Char_toLower(i32 noundef %18) #7
  %58 = ptrtoint ptr %57 to i64
  %59 = lshr i64 %58, 1
  %60 = trunc i64 %59 to i32
  %61 = and i64 %58, 1
  %.not18.i = icmp eq i64 %61, 0
  br i1 %.not18.i, label %62, label %lean_dec.exit.i

62:                                               ; preds = %lean_dec.exit15.i
  %63 = load i32, ptr %57, align 4, !tbaa !5
  %64 = icmp sgt i32 %63, 1
  br i1 %64, label %65, label %67, !prof !10

65:                                               ; preds = %62
  %66 = add nsw i32 %63, -1
  store i32 %66, ptr %57, align 4, !tbaa !5
  br label %lean_dec.exit.i

67:                                               ; preds = %62
  %.not.i16.i = icmp eq i32 %63, 0
  br i1 %.not.i16.i, label %lean_dec.exit.i, label %68

68:                                               ; preds = %67
  tail call void @lean_dec_ref_cold(ptr noundef nonnull %57) #7
  br label %lean_dec.exit.i

lean_dec.exit.i:                                  ; preds = %68, %67, %65, %lean_dec.exit15.i
  %.not19.i = icmp eq i32 %48, %60
  br i1 %.not19.i, label %69, label %l___private_Lean_Data_FuzzyMatching_0__Lean_FuzzyMatching_fuzzyMatchCore_allowMatch.exit

69:                                               ; preds = %lean_dec.exit.i
  %70 = and i64 %27, 510
  %71 = icmp eq i64 %70, 0
  br i1 %71, label %72, label %lean_dec.exit.i.i

72:                                               ; preds = %69
  %73 = and i64 %36, 510
  %74 = icmp eq i64 %73, 0
  br i1 %74, label %75, label %l___private_Lean_Data_FuzzyMatching_0__Lean_FuzzyMatching_fuzzyMatchCore_allowMatch.exit

75:                                               ; preds = %72
  %76 = load ptr, ptr @l___private_Lean_Data_FuzzyMatching_0__Lean_FuzzyMatching_fuzzyMatchCore_allowMatch___lambda__2___closed__2, align 8, !tbaa !11
  br label %l___private_Lean_Data_FuzzyMatching_0__Lean_FuzzyMatching_fuzzyMatchCore_allowMatch.exit

lean_dec.exit.i.i:                                ; preds = %69
  %77 = load ptr, ptr @l___private_Lean_Data_FuzzyMatching_0__Lean_FuzzyMatching_fuzzyMatchCore_allowMatch___lambda__2___closed__2, align 8, !tbaa !11
  br label %l___private_Lean_Data_FuzzyMatching_0__Lean_FuzzyMatching_fuzzyMatchCore_allowMatch.exit

l___private_Lean_Data_FuzzyMatching_0__Lean_FuzzyMatching_fuzzyMatchCore_allowMatch.exit: ; preds = %lean_dec.exit.i, %72, %75, %lean_dec.exit.i.i
  %.0.i = phi ptr [ inttoptr (i64 1 to ptr), %lean_dec.exit.i ], [ %77, %lean_dec.exit.i.i ], [ %76, %75 ], [ inttoptr (i64 1 to ptr), %72 ]
  ret ptr %.0.i
}